target datalayout = "e-m:e-p270:32:32-p271:32:32-p272:64:64-i64:64-i128:128-f80:128-n8:16:32:64-S128"
target triple = "x86_64-pc-linux-gnu"

%"class.zmq::msg_t" = type { %union.anon }
%union.anon = type { %struct.anon }
%struct.anon = type { ptr, [34 x i8], i8, i8, i32, %"union.zmq::msg_t::group_t" }
%"union.zmq::msg_t::group_t" = type { %struct.anon.1 }
%struct.anon.1 = type { i8, ptr }
%struct.anon.0 = type { i8, [15 x i8] }
%struct.anon.3 = type { ptr, ptr, [26 x i8], i8, i8, i32, %"union.zmq::msg_t::group_t" }
%"struct.zmq::msg_t::content_t" = type { ptr, i64, ptr, ptr, %"class.zmq::atomic_counter_t" }
%"class.zmq::atomic_counter_t" = type { %"struct.std::atomic", [4 x i8] }
%"struct.std::atomic" = type { %"struct.std::__atomic_base" }
%"struct.std::__atomic_base" = type { i32 }
%struct.anon.5 = type { ptr, ptr, i64, [18 x i8], i8, i8, i32, %"union.zmq::msg_t::group_t" }

@stderr = external global ptr, align 8
@.str = private unnamed_addr constant [30 x i8] c"Assertion failed: %s (%s:%d)\0A\00", align 1
@.str.2 = private unnamed_addr constant [103 x i8] c"generated/home/dtcxzyw/WorkSpace/Projects/compilers/llvm-opt-benchmark/bench/libzmq/libzmq/src/msg.cpp\00", align 1
@.str.4 = private unnamed_addr constant [28 x i8] c"data_ != NULL || size_ == 0\00", align 1

; Function Attrs: mustprogress nounwind uwtable
define linkonce_odr void @_ZNSt13__atomic_baseIjEC2Ej(ptr noundef nonnull align 4 dereferenceable(4) %0, i32 noundef %1) unnamed_addr #0 comdat align 2 {
  %3 = alloca ptr, align 8
  %4 = alloca i32, align 4
  store ptr %0, ptr %3, align 8, !tbaa !35
  store i32 %1, ptr %4, align 4, !tbaa !14
  %5 = load ptr, ptr %3, align 8
  %6 = getelementptr inbounds nuw %"struct.std::__atomic_base", ptr %5, i32 0, i32 0
  %7 = load i32, ptr %4, align 4, !tbaa !14
  store i32 %7, ptr %6, align 4, !tbaa !37
  ret void
}

; Function Attrs: mustprogress nounwind uwtable
define linkonce_odr void @_ZNSt6atomicIjEC2Ej(ptr noundef nonnull align 4 dereferenceable(4) %0, i32 noundef %1) unnamed_addr #0 comdat align 2 {
  %3 = alloca ptr, align 8
  %4 = alloca i32, align 4
  store ptr %0, ptr %3, align 8, !tbaa !33
  store i32 %1, ptr %4, align 4, !tbaa !14
  %5 = load ptr, ptr %3, align 8
  %6 = load i32, ptr %4, align 4, !tbaa !14
  call void @_ZNSt13__atomic_baseIjEC2Ej(ptr noundef nonnull align 4 dereferenceable(4) %5, i32 noundef %6) #14
  ret void
}

; Function Attrs: mustprogress nounwind uwtable
define linkonce_odr void @_ZN3zmq16atomic_counter_tC2Ej(ptr noundef nonnull align 8 dereferenceable(4) %0, i32 noundef %1) unnamed_addr #0 comdat align 2 {
  %3 = alloca ptr, align 8
  %4 = alloca i32, align 4
  store ptr %0, ptr %3, align 8, !tbaa !26
  store i32 %1, ptr %4, align 4, !tbaa !14
  %5 = load ptr, ptr %3, align 8
  %6 = getelementptr inbounds nuw %"class.zmq::atomic_counter_t", ptr %5, i32 0, i32 0
  %7 = load i32, ptr %4, align 4, !tbaa !14
  call void @_ZNSt6atomicIjEC2Ej(ptr noundef nonnull align 4 dereferenceable(4) %6, i32 noundef %7) #14
  ret void
}

; Function Attrs: mustprogress uwtable
define noundef i32 @_ZN3zmq5msg_t9init_dataEPvmPFvS1_S1_ES1_(ptr noundef nonnull align 8 dereferenceable(64) %0, ptr noundef %1, i64 noundef %2, ptr noundef %3, ptr noundef %4) #1 align 2 {
  %6 = alloca i32, align 4
  %7 = alloca ptr, align 8
  %8 = alloca ptr, align 8
  %9 = alloca i64, align 8
  %10 = alloca ptr, align 8
  %11 = alloca ptr, align 8
  store ptr %0, ptr %7, align 8, !tbaa !3
  store ptr %1, ptr %8, align 8, !tbaa !9
  store i64 %2, ptr %9, align 8, !tbaa !10
  store ptr %3, ptr %10, align 8, !tbaa !9
  store ptr %4, ptr %11, align 8, !tbaa !9
  %12 = load ptr, ptr %7, align 8
  br label %13

13:                                               ; preds = %5
  %14 = load ptr, ptr %8, align 8, !tbaa !9
  %15 = icmp ne ptr %14, null
  br i1 %15, label %19, label %16

16:                                               ; preds = %13
  %17 = load i64, ptr %9, align 8, !tbaa !10
  %18 = icmp eq i64 %17, 0
  br label %19

19:                                               ; preds = %16, %13
  %20 = phi i1 [ true, %13 ], [ %18, %16 ]
  %21 = xor i1 %20, true
  %22 = zext i1 %21 to i64
  %23 = call i64 @llvm.expect.i64(i64 %22, i64 0)
  %24 = icmp ne i64 %23, 0
  br i1 %24, label %25, label %30

25:                                               ; preds = %19
  %26 = load ptr, ptr @stderr, align 8, !tbaa !24
  %27 = call i32 (ptr, ptr, ...) @fprintf(ptr noundef %26, ptr noundef @.str, ptr noundef @.str.4, ptr noundef @.str.2, i32 noundef 144) #14
  %28 = load ptr, ptr @stderr, align 8, !tbaa !24
  %29 = call i32 @fflush(ptr noundef %28)
  call void @_ZN3zmq9zmq_abortEPKc(ptr noundef @.str.4)
  br label %30

30:                                               ; preds = %25, %19
  br label %31

31:                                               ; preds = %30
  %32 = load ptr, ptr %10, align 8, !tbaa !9
  %33 = icmp eq ptr %32, null
  br i1 %33, label %34, label %55

34:                                               ; preds = %31
  %35 = getelementptr inbounds nuw %"class.zmq::msg_t", ptr %12, i32 0, i32 0
  %36 = getelementptr inbounds nuw %struct.anon.5, ptr %35, i32 0, i32 0
  store ptr null, ptr %36, align 8, !tbaa !8
  %37 = getelementptr inbounds nuw %"class.zmq::msg_t", ptr %12, i32 0, i32 0
  %38 = getelementptr inbounds nuw %struct.anon.5, ptr %37, i32 0, i32 4
  store i8 104, ptr %38, align 2, !tbaa !8
  %39 = getelementptr inbounds nuw %"class.zmq::msg_t", ptr %12, i32 0, i32 0
  %40 = getelementptr inbounds nuw %struct.anon.5, ptr %39, i32 0, i32 5
  store i8 0, ptr %40, align 1, !tbaa !8
  %41 = load ptr, ptr %8, align 8, !tbaa !9
  %42 = getelementptr inbounds nuw %"class.zmq::msg_t", ptr %12, i32 0, i32 0
  %43 = getelementptr inbounds nuw %struct.anon.5, ptr %42, i32 0, i32 1
  store ptr %41, ptr %43, align 8, !tbaa !8
  %44 = load i64, ptr %9, align 8, !tbaa !10
  %45 = getelementptr inbounds nuw %"class.zmq::msg_t", ptr %12, i32 0, i32 0
  %46 = getelementptr inbounds nuw %struct.anon.5, ptr %45, i32 0, i32 2
  store i64 %44, ptr %46, align 8, !tbaa !8
  %47 = getelementptr inbounds nuw %"class.zmq::msg_t", ptr %12, i32 0, i32 0
  %48 = getelementptr inbounds nuw %struct.anon.5, ptr %47, i32 0, i32 7
  %49 = getelementptr inbounds nuw %struct.anon.0, ptr %48, i32 0, i32 1
  %50 = getelementptr inbounds [15 x i8], ptr %49, i64 0, i64 0
  store i8 0, ptr %50, align 1, !tbaa !8
  %51 = getelementptr inbounds nuw %"class.zmq::msg_t", ptr %12, i32 0, i32 0
  %52 = getelementptr inbounds nuw %struct.anon.5, ptr %51, i32 0, i32 7
  store i8 0, ptr %52, align 8, !tbaa !8
  %53 = getelementptr inbounds nuw %"class.zmq::msg_t", ptr %12, i32 0, i32 0
  %54 = getelementptr inbounds nuw %struct.anon.5, ptr %53, i32 0, i32 6
  store i32 0, ptr %54, align 4, !tbaa !8
  br label %104

55:                                               ; preds = %31
  %56 = getelementptr inbounds nuw %"class.zmq::msg_t", ptr %12, i32 0, i32 0
  %57 = getelementptr inbounds nuw %struct.anon.3, ptr %56, i32 0, i32 0
  store ptr null, ptr %57, align 8, !tbaa !8
  %58 = getelementptr inbounds nuw %"class.zmq::msg_t", ptr %12, i32 0, i32 0
  %59 = getelementptr inbounds nuw %struct.anon.3, ptr %58, i32 0, i32 3
  store i8 102, ptr %59, align 2, !tbaa !8
  %60 = getelementptr inbounds nuw %"class.zmq::msg_t", ptr %12, i32 0, i32 0
  %61 = getelementptr inbounds nuw %struct.anon.3, ptr %60, i32 0, i32 4
  store i8 0, ptr %61, align 1, !tbaa !8
  %62 = getelementptr inbounds nuw %"class.zmq::msg_t", ptr %12, i32 0, i32 0
  %63 = getelementptr inbounds nuw %struct.anon.3, ptr %62, i32 0, i32 6
  %64 = getelementptr inbounds nuw %struct.anon.0, ptr %63, i32 0, i32 1
  %65 = getelementptr inbounds [15 x i8], ptr %64, i64 0, i64 0
  store i8 0, ptr %65, align 1, !tbaa !8
  %66 = getelementptr inbounds nuw %"class.zmq::msg_t", ptr %12, i32 0, i32 0
  %67 = getelementptr inbounds nuw %struct.anon.3, ptr %66, i32 0, i32 6
  store i8 0, ptr %67, align 8, !tbaa !8
  %68 = getelementptr inbounds nuw %"class.zmq::msg_t", ptr %12, i32 0, i32 0
  %69 = getelementptr inbounds nuw %struct.anon.3, ptr %68, i32 0, i32 5
  store i32 0, ptr %69, align 4, !tbaa !8
  %70 = call noalias ptr @malloc(i64 noundef 40) #15
  %71 = getelementptr inbounds nuw %"class.zmq::msg_t", ptr %12, i32 0, i32 0
  %72 = getelementptr inbounds nuw %struct.anon.3, ptr %71, i32 0, i32 1
  store ptr %70, ptr %72, align 8, !tbaa !8
  %73 = getelementptr inbounds nuw %"class.zmq::msg_t", ptr %12, i32 0, i32 0
  %74 = getelementptr inbounds nuw %struct.anon.3, ptr %73, i32 0, i32 1
  %75 = load ptr, ptr %74, align 8, !tbaa !8
  %76 = icmp ne ptr %75, null
  br i1 %76, label %79, label %77

77:                                               ; preds = %55
  %78 = call ptr @__errno_location() #16
  store i32 12, ptr %78, align 4, !tbaa !14
  store i32 -1, ptr %6, align 4
  br label %105

79:                                               ; preds = %55
  %80 = load ptr, ptr %8, align 8, !tbaa !9
  %81 = getelementptr inbounds nuw %"class.zmq::msg_t", ptr %12, i32 0, i32 0
  %82 = getelementptr inbounds nuw %struct.anon.3, ptr %81, i32 0, i32 1
  %83 = load ptr, ptr %82, align 8, !tbaa !8
  %84 = getelementptr inbounds nuw %"struct.zmq::msg_t::content_t", ptr %83, i32 0, i32 0
  store ptr %80, ptr %84, align 8, !tbaa !16
  %85 = load i64, ptr %9, align 8, !tbaa !10
  %86 = getelementptr inbounds nuw %"class.zmq::msg_t", ptr %12, i32 0, i32 0
  %87 = getelementptr inbounds nuw %struct.anon.3, ptr %86, i32 0, i32 1
  %88 = load ptr, ptr %87, align 8, !tbaa !8
  %89 = getelementptr inbounds nuw %"struct.zmq::msg_t::content_t", ptr %88, i32 0, i32 1
  store i64 %85, ptr %89, align 8, !tbaa !21
  %90 = load ptr, ptr %10, align 8, !tbaa !9
  %91 = getelementptr inbounds nuw %"class.zmq::msg_t", ptr %12, i32 0, i32 0
  %92 = getelementptr inbounds nuw %struct.anon.3, ptr %91, i32 0, i32 1
  %93 = load ptr, ptr %92, align 8, !tbaa !8
  %94 = getelementptr inbounds nuw %"struct.zmq::msg_t::content_t", ptr %93, i32 0, i32 2
  store ptr %90, ptr %94, align 8, !tbaa !22
  %95 = load ptr, ptr %11, align 8, !tbaa !9
  %96 = getelementptr inbounds nuw %"class.zmq::msg_t", ptr %12, i32 0, i32 0
  %97 = getelementptr inbounds nuw %struct.anon.3, ptr %96, i32 0, i32 1
  %98 = load ptr, ptr %97, align 8, !tbaa !8
  %99 = getelementptr inbounds nuw %"struct.zmq::msg_t::content_t", ptr %98, i32 0, i32 3
  store ptr %95, ptr %99, align 8, !tbaa !23
  %100 = getelementptr inbounds nuw %"class.zmq::msg_t", ptr %12, i32 0, i32 0
  %101 = getelementptr inbounds nuw %struct.anon.3, ptr %100, i32 0, i32 1
  %102 = load ptr, ptr %101, align 8, !tbaa !8
  %103 = getelementptr inbounds nuw %"struct.zmq::msg_t::content_t", ptr %102, i32 0, i32 4
  call void @_ZN3zmq16atomic_counter_tC2Ej(ptr noundef nonnull align 8 dereferenceable(4) %103, i32 noundef 0) #14
  br label %104

104:                                              ; preds = %79, %34
  store i32 0, ptr %6, align 4
  br label %105

105:                                              ; preds = %104, %77
  %106 = load i32, ptr %6, align 4
  ret i32 %106
}