; Function Attrs: mustprogress uwtable
define noundef range(i32 -1, 1) i32 @_ZN3zmq5msg_t9init_dataEPvmPFvS1_S1_ES1_(ptr noundef nonnull writeonly align 8 captures(none) dereferenceable(64) initializes((0, 16), (42, 50)) %0, ptr noundef %1, i64 noundef %2, ptr noundef %3, ptr noundef %4) local_unnamed_addr #1 align 2 {
  %6 = icmp eq ptr %1, null
  %7 = icmp ne i64 %2, 0
  %.not13 = and i1 %6, %7
  br i1 %.not13, label %8, label %13, !prof !6

8:                                                ; preds = %5
  %9 = load ptr, ptr @stderr, align 8, !tbaa !7
  %10 = tail call i32 (ptr, ptr, ...) @fprintf(ptr noundef %9, ptr noundef nonnull @.str, ptr noundef nonnull @.str.4, ptr noundef nonnull @.str.2, i32 noundef 144) #20
  %11 = load ptr, ptr @stderr, align 8, !tbaa !7
  %12 = tail call i32 @fflush(ptr noundef %11)
  tail call void @_ZN3zmq9zmq_abortEPKc(ptr noundef nonnull @.str.4)
  br label %13

13:                                               ; preds = %5, %8
  %14 = icmp eq ptr %3, null
  store ptr null, ptr %0, align 8, !tbaa !3
  %15 = getelementptr inbounds nuw i8, ptr %0, i64 42
  %16 = getelementptr inbounds nuw i8, ptr %0, i64 43
  %17 = getelementptr inbounds nuw i8, ptr %0, i64 8
  br i1 %14, label %18, label %23

18:                                               ; preds = %13
  store i8 104, ptr %15, align 2, !tbaa !3
  store i8 0, ptr %16, align 1, !tbaa !3
  store ptr %1, ptr %17, align 8, !tbaa !3
  %19 = getelementptr inbounds nuw i8, ptr %0, i64 16
  store i64 %2, ptr %19, align 8, !tbaa !3
  %20 = getelementptr inbounds nuw i8, ptr %0, i64 48
  %21 = getelementptr inbounds nuw i8, ptr %0, i64 49
  store i8 0, ptr %21, align 1, !tbaa !3
  store i8 0, ptr %20, align 8, !tbaa !3
  %22 = getelementptr inbounds nuw i8, ptr %0, i64 44
  store i32 0, ptr %22, align 4, !tbaa !3
  br label %32

23:                                               ; preds = %13
  store i8 102, ptr %15, align 2, !tbaa !3
  %24 = tail call noalias dereferenceable_or_null(40) ptr @malloc(i64 noundef 40) #21
  tail call void @llvm.memset.p0.i64(ptr noundef nonnull align 1 dereferenceable(7) %16, i8 0, i64 7, i1 false)
  store ptr %24, ptr %17, align 8, !tbaa !3
  %.not = icmp eq ptr %24, null
  br i1 %.not, label %25, label %27

25:                                               ; preds = %23
  %26 = tail call ptr @__errno_location() #22
  store i32 12, ptr %26, align 4, !tbaa !22
  br label %32

27:                                               ; preds = %23
  store ptr %1, ptr %24, align 8, !tbaa !10
  %28 = getelementptr inbounds nuw i8, ptr %24, i64 8
  store i64 %2, ptr %28, align 8, !tbaa !17
  %29 = getelementptr inbounds nuw i8, ptr %24, i64 16
  store ptr %3, ptr %29, align 8, !tbaa !18
  %30 = getelementptr inbounds nuw i8, ptr %24, i64 24
  store ptr %4, ptr %30, align 8, !tbaa !19
  %31 = getelementptr inbounds nuw i8, ptr %24, i64 32
  store i32 0, ptr %31, align 4, !tbaa !20
  br label %32

32:                                               ; preds = %18, %27, %25
  %.0 = phi i32 [ -1, %25 ], [ 0, %27 ], [ 0, %18 ]
  ret i32 %.0
}